target datalayout = "e-m:e-p270:32:32-p271:32:32-p272:64:64-i64:64-i128:128-f80:128-n8:16:32:64-S128"
target triple = "x86_64-pc-linux-gnu"

%struct._proto_node = type { ptr, ptr, ptr, ptr, ptr, ptr }
%struct.field_info = type { ptr, i32, i32, i32, i32, i32, i32, ptr, ptr, ptr, i32, i32 }
%struct._header_field_info = type { ptr, ptr, i32, i32, ptr, i64, ptr, i32, i32, i32, i32, ptr }
%struct.find_hfid_ = type { i32, ptr }

; Function Attrs: mustprogress uwtable
define noundef zeroext i1 @_ZN14ProtoTreeModel15foreachFindHfidEP9ProtoNodePv(ptr noundef %0, ptr noundef %1) #0 align 2 {
  %3 = alloca i1, align 1
  %4 = alloca ptr, align 8
  %5 = alloca ptr, align 8
  %6 = alloca ptr, align 8
  %7 = alloca i32, align 4
  store ptr %0, ptr %4, align 8
  store ptr %1, ptr %5, align 8
  %8 = load ptr, ptr %5, align 8
  store ptr %8, ptr %6, align 8
  %9 = load ptr, ptr %4, align 8
  %10 = call noundef ptr @_ZNK9ProtoNode9protoNodeEv(ptr noundef nonnull align 8 dereferenceable(40) %9)
  %11 = getelementptr inbounds %struct._proto_node, ptr %10, i32 0, i32 4
  %12 = load ptr, ptr %11, align 8
  %13 = icmp ne ptr %12, null
  br i1 %13, label %14, label %31

14:                                               ; preds = %2
  %15 = load ptr, ptr %4, align 8
  %16 = call noundef ptr @_ZNK9ProtoNode9protoNodeEv(ptr noundef nonnull align 8 dereferenceable(40) %15)
  %17 = getelementptr inbounds %struct._proto_node, ptr %16, i32 0, i32 4
  %18 = load ptr, ptr %17, align 8
  %19 = getelementptr inbounds %struct.field_info, ptr %18, i32 0, i32 0
  %20 = load ptr, ptr %19, align 8
  %21 = getelementptr inbounds %struct._header_field_info, ptr %20, i32 0, i32 7
  %22 = load i32, ptr %21, align 8
  %23 = load ptr, ptr %6, align 8
  %24 = getelementptr inbounds %struct.find_hfid_, ptr %23, i32 0, i32 0
  %25 = load i32, ptr %24, align 8
  %26 = icmp eq i32 %22, %25
  br i1 %26, label %27, label %31

27:                                               ; preds = %14
  %28 = load ptr, ptr %4, align 8
  %29 = load ptr, ptr %6, align 8
  %30 = getelementptr inbounds %struct.find_hfid_, ptr %29, i32 0, i32 1
  store ptr %28, ptr %30, align 8
  store i1 true, ptr %3, align 1
  br label %49

31:                                               ; preds = %14, %2
  store i32 0, ptr %7, align 4
  br label %32

32:                                               ; preds = %45, %31
  %33 = load i32, ptr %7, align 4
  %34 = load ptr, ptr %4, align 8
  %35 = call noundef i32 @_ZNK9ProtoNode13childrenCountEv(ptr noundef nonnull align 8 dereferenceable(40) %34)
  %36 = icmp slt i32 %33, %35
  br i1 %36, label %37, label %48

37:                                               ; preds = %32
  %38 = load ptr, ptr %4, align 8
  %39 = load i32, ptr %7, align 4
  %40 = call noundef ptr @_ZN9ProtoNode5childEi(ptr noundef nonnull align 8 dereferenceable(40) %38, i32 noundef %39)
  %41 = load ptr, ptr %6, align 8
  %42 = call noundef zeroext i1 @_ZN14ProtoTreeModel15foreachFindHfidEP9ProtoNodePv(ptr noundef %40, ptr noundef %41)
  br i1 %42, label %43, label %44

43:                                               ; preds = %37
  store i1 true, ptr %3, align 1
  br label %49

44:                                               ; preds = %37
  br label %45

45:                                               ; preds = %44
  %46 = load i32, ptr %7, align 4
  %47 = add i32 %46, 1
  store i32 %47, ptr %7, align 4
  br label %32, !llvm.loop !4

48:                                               ; preds = %32
  store i1 false, ptr %3, align 1
  br label %49

49:                                               ; preds = %48, %43, %27
  %50 = load i1, ptr %3, align 1
  ret i1 %50
}