; Function Attrs: mustprogress uwtable
define noundef zeroext i1 @_ZN14ProtoTreeModel15foreachFindHfidEP9ProtoNodePv(ptr noundef nonnull %0, ptr nocapture noundef %1) local_unnamed_addr #0 align 2 {
  %3 = tail call noundef ptr @_ZNK9ProtoNode9protoNodeEv(ptr noundef nonnull align 8 dereferenceable(40) %0)
  %4 = getelementptr inbounds i8, ptr %3, i64 32
  %5 = load ptr, ptr %4, align 8
  %.not = icmp eq ptr %5, null
  br i1 %.not, label %17, label %6

6:                                                ; preds = %2
  %7 = tail call noundef ptr @_ZNK9ProtoNode9protoNodeEv(ptr noundef nonnull align 8 dereferenceable(40) %0)
  %8 = getelementptr inbounds i8, ptr %7, i64 32
  %9 = load ptr, ptr %8, align 8
  %10 = load ptr, ptr %9, align 8
  %11 = getelementptr inbounds i8, ptr %10, i64 48
  %12 = load i32, ptr %11, align 8
  %13 = load i32, ptr %1, align 8
  %14 = icmp eq i32 %12, %13
  br i1 %14, label %15, label %17

15:                                               ; preds = %6
  %16 = getelementptr inbounds i8, ptr %1, i64 8
  store ptr %0, ptr %16, align 8
  br label %.loopexit

17:                                               ; preds = %6, %2
  %18 = tail call noundef i32 @_ZNK9ProtoNode13childrenCountEv(ptr noundef nonnull align 8 dereferenceable(40) %0)
  %19 = icmp sgt i32 %18, 0
  br i1 %19, label %.lr.ph, label %.loopexit

20:                                               ; preds = %.lr.ph
  %21 = add nuw nsw i32 %.013, 1
  %22 = tail call noundef i32 @_ZNK9ProtoNode13childrenCountEv(ptr noundef nonnull align 8 dereferenceable(40) %0)
  %23 = icmp slt i32 %21, %22
  br i1 %23, label %.lr.ph, label %.loopexit, !llvm.loop !16

.lr.ph:                                           ; preds = %17, %20
  %.013 = phi i32 [ %21, %20 ], [ 0, %17 ]
  %24 = tail call noundef ptr @_ZN9ProtoNode5childEi(ptr noundef nonnull align 8 dereferenceable(40) %0, i32 noundef %.013)
  %25 = tail call noundef zeroext i1 @_ZN14ProtoTreeModel15foreachFindHfidEP9ProtoNodePv(ptr noundef %24, ptr noundef %1)
  br i1 %25, label %.loopexit, label %20

.loopexit:                                        ; preds = %.lr.ph, %20, %17, %15
  %.012 = phi i1 [ true, %15 ], [ false, %17 ], [ %25, %20 ], [ %25, %.lr.ph ]
  ret i1 %.012
}